; Function Attrs: nounwind uwtable
define void @PMIx_Regattr_destruct(ptr noundef captures(address_is_null) %0) local_unnamed_addr #6 {
  %.not.i = icmp eq ptr %0, null
  br i1 %.not.i, label %pmix_bfrops_base_tma_regattr_destruct.exit, label %2

2:                                                ; preds = %1
  %3 = load ptr, ptr %0, align 8, !tbaa !54
  %.not11.i = icmp eq ptr %3, null
  br i1 %.not11.i, label %5, label %4

4:                                                ; preds = %2
  tail call void @free(ptr noundef nonnull %3) #44
  store ptr null, ptr %0, align 8, !tbaa !54
  br label %5

5:                                                ; preds = %4, %2
  %6 = getelementptr inbounds nuw i8, ptr %0, i64 528
  %7 = load ptr, ptr %6, align 8, !tbaa !56
  %.not12.i = icmp eq ptr %7, null
  br i1 %.not12.i, label %pmix_bfrops_base_tma_regattr_destruct.exit, label %.preheader.i.i

.preheader.i.i:                                   ; preds = %5
  %8 = load ptr, ptr %7, align 8, !tbaa !12
  %.not101.i.i = icmp eq ptr %8, null
  br i1 %.not101.i.i, label %pmix_bfrops_base_tma_argv_free.exit.i, label %.lr.ph.i.i

.lr.ph.i.i:                                       ; preds = %.preheader.i.i, %.lr.ph.i.i
  %9 = phi ptr [ %11, %.lr.ph.i.i ], [ %8, %.preheader.i.i ]
  %.02.i.i = phi ptr [ %10, %.lr.ph.i.i ], [ %7, %.preheader.i.i ]
  tail call void @free(ptr noundef nonnull %9) #44
  %10 = getelementptr inbounds nuw i8, ptr %.02.i.i, i64 8
  %11 = load ptr, ptr %10, align 8, !tbaa !12
  %.not10.i.i = icmp eq ptr %11, null
  br i1 %.not10.i.i, label %pmix_bfrops_base_tma_argv_free.exit.i, label %.lr.ph.i.i, !llvm.loop !19

pmix_bfrops_base_tma_argv_free.exit.i:            ; preds = %.lr.ph.i.i, %.preheader.i.i
  tail call void @free(ptr noundef nonnull %7) #44
  store ptr null, ptr %6, align 8, !tbaa !56
  br label %pmix_bfrops_base_tma_regattr_destruct.exit

pmix_bfrops_base_tma_regattr_destruct.exit:       ; preds = %1, %5, %pmix_bfrops_base_tma_argv_free.exit.i
  ret void
}